target datalayout = "e-m:e-p270:32:32-p271:32:32-p272:64:64-i64:64-i128:128-f80:128-n8:16:32:64-S128"
target triple = "x86_64-pc-linux-gnu"

; Function Attrs: mustprogress nounwind uwtable
define noundef zeroext i1 @_Z10IsDriveDivi(i32 noundef %0) #2 {
  %2 = alloca i32, align 4
  store i32 %0, ptr %2, align 4
  ret i1 false
}

; Function Attrs: mustprogress nounwind uwtable
define noundef zeroext i1 @_Z9IsPathDivi(i32 noundef %0) #2 {
  %2 = alloca i32, align 4
  store i32 %0, ptr %2, align 4
  %3 = load i32, ptr %2, align 4
  %4 = icmp eq i32 %3, 47
  ret i1 %4
}

; Function Attrs: mustprogress uwtable
define noundef ptr @_Z11ConvertPathPKwPwm(ptr noundef %0, ptr noundef %1, i64 noundef %2) #0 {
  %4 = alloca ptr, align 8
  %5 = alloca ptr, align 8
  %6 = alloca i64, align 8
  %7 = alloca ptr, align 8
  %8 = alloca ptr, align 8
  %9 = alloca ptr, align 8
  %10 = alloca i32, align 4
  %11 = alloca ptr, align 8
  %12 = alloca ptr, align 8
  %13 = alloca [2048 x i32], align 16
  store ptr %0, ptr %4, align 8
  store ptr %1, ptr %5, align 8
  store i64 %2, ptr %6, align 8
  %14 = load ptr, ptr %4, align 8
  store ptr %14, ptr %7, align 8
  %15 = load ptr, ptr %7, align 8
  store ptr %15, ptr %8, align 8
  br label %16

16:                                               ; preds = %44, %3
  %17 = load ptr, ptr %8, align 8
  %18 = load i32, ptr %17, align 4
  %19 = icmp ne i32 %18, 0
  br i1 %19, label %20, label %47

20:                                               ; preds = %16
  %21 = load ptr, ptr %8, align 8
  %22 = getelementptr inbounds i32, ptr %21, i64 0
  %23 = load i32, ptr %22, align 4
  %24 = call noundef zeroext i1 @_Z9IsPathDivi(i32 noundef %23)
  br i1 %24, label %25, label %43

25:                                               ; preds = %20
  %26 = load ptr, ptr %8, align 8
  %27 = getelementptr inbounds i32, ptr %26, i64 1
  %28 = load i32, ptr %27, align 4
  %29 = icmp eq i32 %28, 46
  br i1 %29, label %30, label %43

30:                                               ; preds = %25
  %31 = load ptr, ptr %8, align 8
  %32 = getelementptr inbounds i32, ptr %31, i64 2
  %33 = load i32, ptr %32, align 4
  %34 = icmp eq i32 %33, 46
  br i1 %34, label %35, label %43

35:                                               ; preds = %30
  %36 = load ptr, ptr %8, align 8
  %37 = getelementptr inbounds i32, ptr %36, i64 3
  %38 = load i32, ptr %37, align 4
  %39 = call noundef zeroext i1 @_Z9IsPathDivi(i32 noundef %38)
  br i1 %39, label %40, label %43

40:                                               ; preds = %35
  %41 = load ptr, ptr %8, align 8
  %42 = getelementptr inbounds i32, ptr %41, i64 4
  store ptr %42, ptr %7, align 8
  br label %43

43:                                               ; preds = %40, %35, %30, %25, %20
  br label %44

44:                                               ; preds = %43
  %45 = load ptr, ptr %8, align 8
  %46 = getelementptr inbounds i32, ptr %45, i32 1
  store ptr %46, ptr %8, align 8
  br label %16, !llvm.loop !6

47:                                               ; preds = %16
  br label %48

48:                                               ; preds = %127, %47
  %49 = load ptr, ptr %7, align 8
  %50 = load i32, ptr %49, align 4
  %51 = icmp ne i32 %50, 0
  br i1 %51, label %52, label %129

52:                                               ; preds = %48
  %53 = load ptr, ptr %7, align 8
  store ptr %53, ptr %9, align 8
  %54 = load ptr, ptr %9, align 8
  %55 = getelementptr inbounds i32, ptr %54, i64 0
  %56 = load i32, ptr %55, align 4
  %57 = icmp ne i32 %56, 0
  br i1 %57, label %58, label %66

58:                                               ; preds = %52
  %59 = load ptr, ptr %9, align 8
  %60 = getelementptr inbounds i32, ptr %59, i64 1
  %61 = load i32, ptr %60, align 4
  %62 = call noundef zeroext i1 @_Z10IsDriveDivi(i32 noundef %61)
  br i1 %62, label %63, label %66

63:                                               ; preds = %58
  %64 = load ptr, ptr %9, align 8
  %65 = getelementptr inbounds i32, ptr %64, i64 2
  store ptr %65, ptr %9, align 8
  br label %66

66:                                               ; preds = %63, %58, %52
  %67 = load ptr, ptr %9, align 8
  %68 = getelementptr inbounds i32, ptr %67, i64 0
  %69 = load i32, ptr %68, align 4
  %70 = call noundef zeroext i1 @_Z9IsPathDivi(i32 noundef %69)
  br i1 %70, label %71, label %99

71:                                               ; preds = %66
  %72 = load ptr, ptr %9, align 8
  %73 = getelementptr inbounds i32, ptr %72, i64 1
  %74 = load i32, ptr %73, align 4
  %75 = call noundef zeroext i1 @_Z9IsPathDivi(i32 noundef %74)
  br i1 %75, label %76, label %99

76:                                               ; preds = %71
  store i32 0, ptr %10, align 4
  %77 = load ptr, ptr %9, align 8
  %78 = getelementptr inbounds i32, ptr %77, i64 2
  store ptr %78, ptr %11, align 8
  br label %79

79:                                               ; preds = %95, %76
  %80 = load ptr, ptr %11, align 8
  %81 = load i32, ptr %80, align 4
  %82 = icmp ne i32 %81, 0
  br i1 %82, label %83, label %98

83:                                               ; preds = %79
  %84 = load ptr, ptr %11, align 8
  %85 = load i32, ptr %84, align 4
  %86 = call noundef zeroext i1 @_Z9IsPathDivi(i32 noundef %85)
  br i1 %86, label %87, label %94

87:                                               ; preds = %83
  %88 = load i32, ptr %10, align 4
  %89 = add i32 %88, 1
  store i32 %89, ptr %10, align 4
  %90 = icmp eq i32 %89, 2
  br i1 %90, label %91, label %94

91:                                               ; preds = %87
  %92 = load ptr, ptr %11, align 8
  %93 = getelementptr inbounds i32, ptr %92, i64 1
  store ptr %93, ptr %9, align 8
  br label %98

94:                                               ; preds = %87, %83
  br label %95

95:                                               ; preds = %94
  %96 = load ptr, ptr %11, align 8
  %97 = getelementptr inbounds i32, ptr %96, i32 1
  store ptr %97, ptr %11, align 8
  br label %79, !llvm.loop !7

98:                                               ; preds = %91, %79
  br label %99

99:                                               ; preds = %98, %71, %66
  %100 = load ptr, ptr %9, align 8
  store ptr %100, ptr %12, align 8
  br label %101

101:                                              ; preds = %119, %99
  %102 = load ptr, ptr %12, align 8
  %103 = load i32, ptr %102, align 4
  %104 = icmp ne i32 %103, 0
  br i1 %104, label %105, label %122

105:                                              ; preds = %101
  %106 = load ptr, ptr %12, align 8
  %107 = load i32, ptr %106, align 4
  %108 = call noundef zeroext i1 @_Z9IsPathDivi(i32 noundef %107)
  br i1 %108, label %109, label %112

109:                                              ; preds = %105
  %110 = load ptr, ptr %12, align 8
  %111 = getelementptr inbounds i32, ptr %110, i64 1
  store ptr %111, ptr %9, align 8
  br label %118

112:                                              ; preds = %105
  %113 = load ptr, ptr %12, align 8
  %114 = load i32, ptr %113, align 4
  %115 = icmp ne i32 %114, 46
  br i1 %115, label %116, label %117

116:                                              ; preds = %112
  br label %122

117:                                              ; preds = %112
  br label %118

118:                                              ; preds = %117, %109
  br label %119

119:                                              ; preds = %118
  %120 = load ptr, ptr %12, align 8
  %121 = getelementptr inbounds i32, ptr %120, i32 1
  store ptr %121, ptr %12, align 8
  br label %101, !llvm.loop !8

122:                                              ; preds = %116, %101
  %123 = load ptr, ptr %9, align 8
  %124 = load ptr, ptr %7, align 8
  %125 = icmp eq ptr %123, %124
  br i1 %125, label %126, label %127

126:                                              ; preds = %122
  br label %129

127:                                              ; preds = %122
  %128 = load ptr, ptr %9, align 8
  store ptr %128, ptr %7, align 8
  br label %48, !llvm.loop !9

129:                                              ; preds = %126, %48
  %130 = load ptr, ptr %7, align 8
  %131 = getelementptr inbounds i32, ptr %130, i64 0
  %132 = load i32, ptr %131, align 4
  %133 = icmp eq i32 %132, 46
  br i1 %133, label %134, label %147

134:                                              ; preds = %129
  %135 = load ptr, ptr %7, align 8
  %136 = getelementptr inbounds i32, ptr %135, i64 1
  %137 = load i32, ptr %136, align 4
  %138 = icmp eq i32 %137, 46
  br i1 %138, label %139, label %147

139:                                              ; preds = %134
  %140 = load ptr, ptr %7, align 8
  %141 = getelementptr inbounds i32, ptr %140, i64 2
  %142 = load i32, ptr %141, align 4
  %143 = icmp eq i32 %142, 0
  br i1 %143, label %144, label %147

144:                                              ; preds = %139
  %145 = load ptr, ptr %7, align 8
  %146 = getelementptr inbounds i32, ptr %145, i64 2
  store ptr %146, ptr %7, align 8
  br label %147

147:                                              ; preds = %144, %139, %134, %129
  %148 = load ptr, ptr %5, align 8
  %149 = icmp ne ptr %148, null
  br i1 %149, label %150, label %156

150:                                              ; preds = %147
  %151 = getelementptr inbounds [2048 x i32], ptr %13, i64 0, i64 0
  %152 = load ptr, ptr %7, align 8
  call void @_Z8wcsncpyzPwPKwm(ptr noundef %151, ptr noundef %152, i64 noundef 2048)
  %153 = load ptr, ptr %5, align 8
  %154 = getelementptr inbounds [2048 x i32], ptr %13, i64 0, i64 0
  %155 = load i64, ptr %6, align 8
  call void @_Z8wcsncpyzPwPKwm(ptr noundef %153, ptr noundef %154, i64 noundef %155)
  br label %156

156:                                              ; preds = %150, %147
  %157 = load ptr, ptr %7, align 8
  ret ptr %157
}