; Function Attrs: mustprogress uwtable
define noundef ptr @_Z11ConvertPathPKwPwm(ptr noundef %0, ptr noundef %1, i64 noundef %2) local_unnamed_addr #3 {
  %4 = alloca [2048 x i32], align 16
  br label %5

5:                                                ; preds = %20, %3
  %.044 = phi ptr [ %0, %3 ], [ %.145, %20 ]
  %.043 = phi ptr [ %0, %3 ], [ %21, %20 ]
  %6 = load i32, ptr %.043, align 4
  switch i32 %6, label %20 [
    i32 0, label %.preheader
    i32 47, label %7
  ]

7:                                                ; preds = %5
  %8 = getelementptr inbounds nuw i8, ptr %.043, i64 4
  %9 = load i32, ptr %8, align 4
  %10 = icmp eq i32 %9, 46
  br i1 %10, label %11, label %20

11:                                               ; preds = %7
  %12 = getelementptr inbounds nuw i8, ptr %.043, i64 8
  %13 = load i32, ptr %12, align 4
  %14 = icmp eq i32 %13, 46
  br i1 %14, label %15, label %20

15:                                               ; preds = %11
  %16 = getelementptr inbounds nuw i8, ptr %.043, i64 12
  %17 = load i32, ptr %16, align 4
  %18 = icmp eq i32 %17, 47
  %19 = getelementptr inbounds nuw i8, ptr %.043, i64 16
  %spec.select = select i1 %18, ptr %19, ptr %.044
  br label %20

20:                                               ; preds = %5, %15, %7, %11
  %.145 = phi ptr [ %.044, %11 ], [ %.044, %7 ], [ %spec.select, %15 ], [ %.044, %5 ]
  %21 = getelementptr inbounds nuw i8, ptr %.043, i64 4
  br label %5, !llvm.loop !6

.preheader:                                       ; preds = %5, %41
  %.246 = phi ptr [ %.2, %41 ], [ %.044, %5 ]
  %22 = load i32, ptr %.246, align 4
  switch i32 %22, label %.loopexit.preheader [
    i32 0, label %.thread
    i32 47, label %23
  ]

23:                                               ; preds = %.preheader
  %24 = getelementptr inbounds nuw i8, ptr %.246, i64 4
  %25 = load i32, ptr %24, align 4
  %26 = icmp eq i32 %25, 47
  br i1 %26, label %27, label %.loopexit.preheader

.loopexit.preheader:                              ; preds = %29, %.preheader, %32, %23
  %.0.ph = phi ptr [ %.246, %.preheader ], [ %.246, %23 ], [ %33, %32 ], [ %.246, %29 ]
  br label %.loopexit

27:                                               ; preds = %23
  %28 = getelementptr inbounds nuw i8, ptr %.246, i64 8
  br label %29

29:                                               ; preds = %34, %27
  %.040 = phi i32 [ 0, %27 ], [ %.1, %34 ]
  %.039 = phi ptr [ %28, %27 ], [ %35, %34 ]
  %30 = load i32, ptr %.039, align 4
  switch i32 %30, label %34 [
    i32 0, label %.loopexit.preheader
    i32 47, label %31
  ]

31:                                               ; preds = %29
  %.not55 = icmp eq i32 %.040, 0
  br i1 %.not55, label %34, label %32

32:                                               ; preds = %31
  %33 = getelementptr inbounds nuw i8, ptr %.039, i64 4
  br label %.loopexit.preheader

34:                                               ; preds = %29, %31
  %.1 = phi i32 [ 1, %31 ], [ %.040, %29 ]
  %35 = getelementptr inbounds nuw i8, ptr %.039, i64 4
  br label %29, !llvm.loop !7

.loopexit:                                        ; preds = %.loopexit.preheader, %39
  %.2 = phi ptr [ %.3, %39 ], [ %.0.ph, %.loopexit.preheader ]
  %.0 = phi ptr [ %40, %39 ], [ %.0.ph, %.loopexit.preheader ]
  %36 = load i32, ptr %.0, align 4
  switch i32 %36, label %41 [
    i32 46, label %39
    i32 47, label %37
  ]

37:                                               ; preds = %.loopexit
  %38 = getelementptr inbounds nuw i8, ptr %.0, i64 4
  br label %39

39:                                               ; preds = %.loopexit, %37
  %.3 = phi ptr [ %38, %37 ], [ %.2, %.loopexit ]
  %40 = getelementptr inbounds nuw i8, ptr %.0, i64 4
  br label %.loopexit, !llvm.loop !8

41:                                               ; preds = %.loopexit
  %42 = icmp eq ptr %.2, %.246
  br i1 %42, label %43, label %.preheader, !llvm.loop !9

43:                                               ; preds = %41
  %44 = icmp eq i32 %22, 46
  br i1 %44, label %45, label %.thread

45:                                               ; preds = %43
  %46 = getelementptr inbounds nuw i8, ptr %.246, i64 4
  %47 = load i32, ptr %46, align 4
  %48 = icmp eq i32 %47, 46
  br i1 %48, label %49, label %.thread

49:                                               ; preds = %45
  %50 = getelementptr inbounds nuw i8, ptr %.246, i64 8
  %51 = load i32, ptr %50, align 4
  %52 = icmp eq i32 %51, 0
  %spec.select59 = select i1 %52, ptr %50, ptr %.246
  br label %.thread

.thread:                                          ; preds = %.preheader, %49, %45, %43
  %.347 = phi ptr [ %.246, %45 ], [ %.246, %43 ], [ %spec.select59, %49 ], [ %.246, %.preheader ]
  %.not58 = icmp eq ptr %1, null
  br i1 %.not58, label %54, label %53

53:                                               ; preds = %.thread
  call void @_Z8wcsncpyzPwPKwm(ptr noundef nonnull %4, ptr noundef nonnull %.347, i64 noundef 2048)
  call void @_Z8wcsncpyzPwPKwm(ptr noundef nonnull %1, ptr noundef nonnull %4, i64 noundef %2)
  br label %54

54:                                               ; preds = %53, %.thread
  ret ptr %.347
}